; Function Attrs: mustprogress nounwind uwtable
define dso_local noundef i64 @_ZNK4i18n12phonenumbers12NumberFormat30RequiredFieldsByteSizeFallbackEv(ptr nocapture noundef nonnull readonly align 8 dereferenceable(88) %0) local_unnamed_addr #6 align 2 {
  %2 = getelementptr inbounds i8, ptr %0, i64 16
  %3 = load i32, ptr %2, align 8
  %4 = and i32 %3, 1
  %.not = icmp eq i32 %4, 0
  br i1 %.not, label %19, label %5

5:                                                ; preds = %1
  %6 = getelementptr inbounds i8, ptr %0, i64 48
  %7 = load ptr, ptr %6, align 8
  %8 = tail call noundef i64 @_ZNKSt7__cxx1112basic_stringIcSt11char_traitsIcESaIcEE4sizeEv(ptr noundef nonnull align 8 dereferenceable(32) %7) #21
  %9 = trunc i64 %8 to i32
  %10 = or i32 %9, 1
  %11 = tail call i32 @llvm.ctlz.i32(i32 %10, i1 true), !range !9
  %12 = xor i32 %11, 31
  %13 = mul nuw nsw i32 %12, 9
  %14 = add nuw nsw i32 %13, 73
  %15 = lshr i32 %14, 6
  %16 = zext nneg i32 %15 to i64
  %17 = add i64 %8, 1
  %18 = add i64 %17, %16
  %.pre = load i32, ptr %2, align 8
  br label %19

19:                                               ; preds = %5, %1
  %20 = phi i32 [ %.pre, %5 ], [ %3, %1 ]
  %.0 = phi i64 [ %18, %5 ], [ 0, %1 ]
  %21 = and i32 %20, 2
  %.not3 = icmp eq i32 %21, 0
  br i1 %.not3, label %37, label %22

22:                                               ; preds = %19
  %23 = getelementptr inbounds i8, ptr %0, i64 56
  %24 = load ptr, ptr %23, align 8
  %25 = tail call noundef i64 @_ZNKSt7__cxx1112basic_stringIcSt11char_traitsIcESaIcEE4sizeEv(ptr noundef nonnull align 8 dereferenceable(32) %24) #21
  %26 = trunc i64 %25 to i32
  %27 = or i32 %26, 1
  %28 = tail call i32 @llvm.ctlz.i32(i32 %27, i1 true), !range !9
  %29 = xor i32 %28, 31
  %30 = mul nuw nsw i32 %29, 9
  %31 = add nuw nsw i32 %30, 73
  %32 = lshr i32 %31, 6
  %33 = zext nneg i32 %32 to i64
  %34 = add i64 %.0, 1
  %35 = add i64 %34, %25
  %36 = add i64 %35, %33
  br label %37

37:                                               ; preds = %22, %19
  %.1 = phi i64 [ %36, %22 ], [ %.0, %19 ]
  ret i64 %.1
}